target datalayout = "e-m:e-p270:32:32-p271:32:32-p272:64:64-i64:64-i128:128-f80:128-n8:16:32:64-S128"
target triple = "x86_64-pc-linux-gnu"

%struct.strbuf = type { i64, i64, ptr }
%struct.object_id = type { [32 x i8], i32 }
%struct.apply_state = type { ptr, %struct.lock_file, i32, i32, i32, i32, i32, i32, i32, i32, i32, i32, i32, i32, i32, i32, i32, i32, i32, ptr, ptr, i32, i32, ptr, ptr, i32, %struct.strbuf, i32, i32, i32, %struct.string_list, i32, i32, %struct.strset, %struct.strset, i32, i32, %struct.string_list, ptr, ptr, i32, i32, ptr, i32, i32, i32 }
%struct.lock_file = type { ptr }
%struct.strset = type { %struct.strmap }
%struct.strmap = type { %struct.hashmap, ptr, i8 }
%struct.hashmap = type { ptr, ptr, ptr, i32, i32, i32, i32, i8 }
%struct.string_list = type { ptr, i64, i64, i8, ptr }
%struct.patch = type { ptr, ptr, ptr, i32, i32, i32, i32, i32, i32, i32, i32, i32, i32, i16, ptr, ptr, i64, [65 x i8], [65 x i8], ptr, [3 x %struct.object_id] }
%struct.repository = type { ptr, ptr, ptr, ptr, ptr, %struct.strmap, %struct.strmap, %struct.repo_path_cache, ptr, ptr, ptr, ptr, %struct.repo_settings, ptr, ptr, ptr, ptr, ptr, ptr, i32, i32, i32, ptr, ptr, i32, i32, i8 }
%struct.repo_path_cache = type { ptr, ptr, ptr, ptr, ptr, ptr, ptr }
%struct.repo_settings = type { i32, i32, i32, i32, i32, i32, i32, i32, i32, i32, i32, i32, ptr, i32, i32, i32, i32, i32, i32, i32, i64, i64, i64 }

@.str.23 = private unnamed_addr constant [1 x i8] zeroinitializer, align 1
@git_gettext_enabled = external global i32, align 4
@.str.225 = private unnamed_addr constant [31 x i8] c"unable to remove %s from index\00", align 1

; Function Attrs: inlinehint nounwind uwtable
define internal i32 @const_error() #3 {
  ret i32 -1
}

; Function Attrs: inlinehint nounwind uwtable
define internal ptr @_(ptr noundef %0) #3 {
  %2 = alloca ptr, align 8
  %3 = alloca ptr, align 8
  store ptr %0, ptr %3, align 8, !tbaa !11
  %4 = load ptr, ptr %3, align 8, !tbaa !11
  %5 = load i8, ptr %4, align 1, !tbaa !57
  %6 = icmp ne i8 %5, 0
  br i1 %6, label %8, label %7

7:                                                ; preds = %1
  store ptr @.str.23, ptr %2, align 8
  br label %16

8:                                                ; preds = %1
  %9 = load i32, ptr @git_gettext_enabled, align 4, !tbaa !39
  %10 = icmp ne i32 %9, 0
  br i1 %10, label %13, label %11

11:                                               ; preds = %8
  %12 = load ptr, ptr %3, align 8, !tbaa !11
  store ptr %12, ptr %2, align 8
  br label %16

13:                                               ; preds = %8
  %14 = load ptr, ptr %3, align 8, !tbaa !11
  %15 = call ptr @dcgettext(ptr noundef null, ptr noundef %14, i32 noundef 5) #12
  store ptr %15, ptr %2, align 8
  br label %16

16:                                               ; preds = %13, %11, %7
  %17 = load ptr, ptr %2, align 8
  ret ptr %17
}

; Function Attrs: nounwind uwtable
define internal i32 @remove_file(ptr noundef %0, ptr noundef %1, i32 noundef %2) #0 {
  %4 = alloca i32, align 4
  %5 = alloca ptr, align 8
  %6 = alloca ptr, align 8
  %7 = alloca i32, align 4
  store ptr %0, ptr %5, align 8, !tbaa !4
  store ptr %1, ptr %6, align 8, !tbaa !60
  store i32 %2, ptr %7, align 4, !tbaa !39
  %8 = load ptr, ptr %5, align 8, !tbaa !4
  %9 = getelementptr inbounds nuw %struct.apply_state, ptr %8, i32 0, i32 6
  %10 = load i32, ptr %9, align 8, !tbaa !124
  %11 = icmp ne i32 %10, 0
  br i1 %11, label %12, label %36

12:                                               ; preds = %3
  %13 = load ptr, ptr %5, align 8, !tbaa !4
  %14 = getelementptr inbounds nuw %struct.apply_state, ptr %13, i32 0, i32 7
  %15 = load i32, ptr %14, align 4, !tbaa !53
  %16 = icmp ne i32 %15, 0
  br i1 %16, label %36, label %17

17:                                               ; preds = %12
  %18 = load ptr, ptr %5, align 8, !tbaa !4
  %19 = getelementptr inbounds nuw %struct.apply_state, ptr %18, i32 0, i32 19
  %20 = load ptr, ptr %19, align 8, !tbaa !27
  %21 = getelementptr inbounds nuw %struct.repository, ptr %20, i32 0, i32 15
  %22 = load ptr, ptr %21, align 8, !tbaa !125
  %23 = load ptr, ptr %6, align 8, !tbaa !60
  %24 = getelementptr inbounds nuw %struct.patch, ptr %23, i32 0, i32 1
  %25 = load ptr, ptr %24, align 8, !tbaa !66
  %26 = call i32 @remove_file_from_index(ptr noundef %22, ptr noundef %25)
  %27 = icmp slt i32 %26, 0
  br i1 %27, label %28, label %35

28:                                               ; preds = %17
  %29 = call ptr @_(ptr noundef @.str.225)
  %30 = load ptr, ptr %6, align 8, !tbaa !60
  %31 = getelementptr inbounds nuw %struct.patch, ptr %30, i32 0, i32 1
  %32 = load ptr, ptr %31, align 8, !tbaa !66
  %33 = call i32 (ptr, ...) @error(ptr noundef %29, ptr noundef %32)
  %34 = call i32 @const_error()
  store i32 %34, ptr %4, align 4
  br label %60

35:                                               ; preds = %17
  br label %36

36:                                               ; preds = %35, %12, %3
  %37 = load ptr, ptr %5, align 8, !tbaa !4
  %38 = getelementptr inbounds nuw %struct.apply_state, ptr %37, i32 0, i32 3
  %39 = load i32, ptr %38, align 4, !tbaa !52
  %40 = icmp ne i32 %39, 0
  br i1 %40, label %59, label %41

41:                                               ; preds = %36
  %42 = load ptr, ptr %6, align 8, !tbaa !60
  %43 = getelementptr inbounds nuw %struct.patch, ptr %42, i32 0, i32 3
  %44 = load i32, ptr %43, align 8, !tbaa !200
  %45 = load ptr, ptr %6, align 8, !tbaa !60
  %46 = getelementptr inbounds nuw %struct.patch, ptr %45, i32 0, i32 1
  %47 = load ptr, ptr %46, align 8, !tbaa !66
  %48 = call i32 @remove_or_warn(i32 noundef %44, ptr noundef %47)
  %49 = icmp ne i32 %48, 0
  br i1 %49, label %58, label %50

50:                                               ; preds = %41
  %51 = load i32, ptr %7, align 4, !tbaa !39
  %52 = icmp ne i32 %51, 0
  br i1 %52, label %53, label %58

53:                                               ; preds = %50
  %54 = load ptr, ptr %6, align 8, !tbaa !60
  %55 = getelementptr inbounds nuw %struct.patch, ptr %54, i32 0, i32 1
  %56 = load ptr, ptr %55, align 8, !tbaa !66
  %57 = call i32 @remove_path(ptr noundef %56)
  br label %58

58:                                               ; preds = %53, %50, %41
  br label %59

59:                                               ; preds = %58, %36
  store i32 0, ptr %4, align 4
  br label %60

60:                                               ; preds = %59, %28
  %61 = load i32, ptr %4, align 4
  ret i32 %61
}