; Function Attrs: nounwind uwtable
define internal fastcc range(i32 -1, 1) i32 @remove_file(ptr noundef readonly captures(none) %0, ptr noundef nonnull readonly captures(none) %1, i32 noundef range(i32 0, 2) %2) unnamed_addr #0 {
  %4 = getelementptr inbounds nuw i8, ptr %0, i64 32
  %5 = load i32, ptr %4, align 8, !tbaa !108
  %.not = icmp eq i32 %5, 0
  br i1 %.not, label %24, label %6

6:                                                ; preds = %3
  %7 = getelementptr inbounds nuw i8, ptr %0, i64 36
  %8 = load i32, ptr %7, align 4, !tbaa !49
  %.not11 = icmp eq i32 %8, 0
  br i1 %.not11, label %9, label %24

9:                                                ; preds = %6
  %10 = getelementptr inbounds nuw i8, ptr %0, i64 88
  %11 = load ptr, ptr %10, align 8, !tbaa !23
  %12 = getelementptr inbounds nuw i8, ptr %11, i64 384
  %13 = load ptr, ptr %12, align 8, !tbaa !109
  %14 = getelementptr inbounds nuw i8, ptr %1, i64 8
  %15 = load ptr, ptr %14, align 8, !tbaa !64
  %16 = tail call i32 @remove_file_from_index(ptr noundef %13, ptr noundef %15) #21
  %17 = icmp slt i32 %16, 0
  br i1 %17, label %18, label %24

18:                                               ; preds = %9
  %19 = load i32, ptr @git_gettext_enabled, align 4, !tbaa !34
  %.not4.i = icmp eq i32 %19, 0
  br i1 %.not4.i, label %_.exit, label %20

20:                                               ; preds = %18
  %21 = tail call ptr @dcgettext(ptr noundef null, ptr noundef nonnull @.str.225, i32 noundef 5) #21
  br label %_.exit

_.exit:                                           ; preds = %18, %20
  %.0.i = phi ptr [ %21, %20 ], [ @.str.225, %18 ]
  %22 = load ptr, ptr %14, align 8, !tbaa !64
  %23 = tail call i32 (ptr, ...) @error(ptr noundef %.0.i, ptr noundef %22) #21
  br label %38

24:                                               ; preds = %9, %6, %3
  %25 = getelementptr inbounds nuw i8, ptr %0, i64 20
  %26 = load i32, ptr %25, align 4, !tbaa !48
  %.not12 = icmp eq i32 %26, 0
  br i1 %.not12, label %27, label %38

27:                                               ; preds = %24
  %28 = getelementptr inbounds nuw i8, ptr %1, i64 24
  %29 = load i32, ptr %28, align 8, !tbaa !113
  %30 = getelementptr inbounds nuw i8, ptr %1, i64 8
  %31 = load ptr, ptr %30, align 8, !tbaa !64
  %32 = tail call i32 @remove_or_warn(i32 noundef %29, ptr noundef %31) #21
  %33 = icmp eq i32 %32, 0
  %34 = icmp ne i32 %2, 0
  %or.cond = and i1 %34, %33
  br i1 %or.cond, label %35, label %38

35:                                               ; preds = %27
  %36 = load ptr, ptr %30, align 8, !tbaa !64
  %37 = tail call i32 @remove_path(ptr noundef %36) #21
  br label %38

38:                                               ; preds = %24, %35, %27, %_.exit
  %.0 = phi i32 [ -1, %_.exit ], [ 0, %27 ], [ 0, %35 ], [ 0, %24 ]
  ret i32 %.0
}